target datalayout = "e-m:e-p270:32:32-p271:32:32-p272:64:64-i64:64-i128:128-f80:128-n8:16:32:64-S128"
target triple = "x86_64-pc-linux-gnu"

%"struct.std::_Rb_tree_header" = type { %"struct.std::_Rb_tree_node_base", i64 }
%"struct.std::_Rb_tree_node_base" = type { i32, ptr, ptr, ptr }
%class.VNVisitor = type { %class.VNVisitorConst, %class.VNDeleter }
%class.VNVisitorConst = type { ptr }
%class.VNDeleter = type { %"class.std::vector" }
%"class.std::vector" = type { %"struct.std::_Vector_base" }
%"struct.std::_Vector_base" = type { %"struct.std::_Vector_base<AstNode *, std::allocator<AstNode *>>::_Vector_impl" }
%"struct.std::_Vector_base<AstNode *, std::allocator<AstNode *>>::_Vector_impl" = type { %"struct.std::_Vector_base<AstNode *, std::allocator<AstNode *>>::_Vector_impl_data" }
%"struct.std::_Vector_base<AstNode *, std::allocator<AstNode *>>::_Vector_impl_data" = type { ptr, ptr, ptr }
%"struct.(anonymous namespace)::StmtProperties" = type { ptr, %"class.std::set.62", %"class.std::set.62", i8, ptr }
%"class.std::set.62" = type { %"class.std::_Rb_tree.63" }
%"class.std::_Rb_tree.63" = type { %"struct.std::_Rb_tree<const AstVar *, const AstVar *, std::_Identity<const AstVar *>, std::less<const AstVar *>>::_Rb_tree_impl" }
%"struct.std::_Rb_tree<const AstVar *, const AstVar *, std::_Identity<const AstVar *>, std::less<const AstVar *>>::_Rb_tree_impl" = type { %"struct.std::_Rb_tree_key_compare.67", %"struct.std::_Rb_tree_header" }
%"struct.std::_Rb_tree_key_compare.67" = type { %"struct.std::less.68" }
%"struct.std::less.68" = type { i8 }
%class.AstNode = type { ptr, ptr, ptr, ptr, ptr, ptr, ptr, ptr, %class.VNType, %struct.anon, i8, i32, ptr, ptr, ptr, ptr, %class.VNUser, i32, i32, %class.VNUser, %class.VNUser, i32, i32, %class.VNUser }
%class.VNType = type { i16 }
%struct.anon = type { i8 }
%class.VNUser = type { %union.anon.52 }
%union.anon.52 = type { ptr }
%class.VNUser4InUse = type { i8 }
%"class.(anonymous namespace)::CodeMotionOptimizeVisitor" = type { %class.VNVisitor, %class.VNUser4InUse, ptr }
%class.V3ErrorCode = type { i8 }

@_ZN12VNUser3InUse12s_userCntGblE = external global i32, align 4
@.str.443 = private unnamed_addr constant [122 x i8] c"generated/home/dtcxzyw/WorkSpace/Projects/compilers/llvm-opt-benchmark/bench/verilator/verilator/src/V3AstUserAllocator.h\00", align 1
@.str.444 = private unnamed_addr constant [35 x i8] c"Missing User data on const AstNode\00", align 1

; Function Attrs: mustprogress nounwind uwtable
define linkonce_odr dso_local void @_ZN6VNUserC2Ei(ptr noundef nonnull align 8 dereferenceable(8) %0, i32 noundef %1) unnamed_addr #5 comdat align 2 {
  %3 = alloca ptr, align 8
  %4 = alloca i32, align 4
  store ptr %0, ptr %3, align 8
  store i32 %1, ptr %4, align 4
  %5 = load ptr, ptr %3, align 8
  %6 = getelementptr inbounds %class.VNUser, ptr %5, i32 0, i32 0
  store ptr null, ptr %6, align 8
  %7 = load i32, ptr %4, align 4
  %8 = getelementptr inbounds %class.VNUser, ptr %5, i32 0, i32 0
  store i32 %7, ptr %8, align 8
  ret void
}

; Function Attrs: mustprogress nounwind uwtable
define internal noundef ptr @_ZNK6VNUser2toIPN12_GLOBAL__N_114StmtPropertiesEEENSt9enable_ifIXsr3std10is_pointerIT_EE5valueES5_E4typeEv(ptr noundef nonnull align 8 dereferenceable(8) %0) #5 align 2 {
  %2 = alloca ptr, align 8
  store ptr %0, ptr %2, align 8
  %3 = load ptr, ptr %2, align 8
  %4 = getelementptr inbounds %class.VNUser, ptr %3, i32 0, i32 0
  %5 = load ptr, ptr %4, align 8
  ret ptr %5
}

; Function Attrs: mustprogress uwtable
define linkonce_odr dso_local ptr @_ZNK7AstNode6user3uEv(ptr noundef nonnull align 8 dereferenceable(152) %0) #4 comdat align 2 {
  %2 = alloca %class.VNUser, align 8
  %3 = alloca ptr, align 8
  store ptr %0, ptr %3, align 8
  %4 = load ptr, ptr %3, align 8
  %5 = getelementptr inbounds %class.AstNode, ptr %4, i32 0, i32 21
  %6 = load i32, ptr %5, align 8
  %7 = load i32, ptr @_ZN12VNUser3InUse12s_userCntGblE, align 4
  %8 = icmp eq i32 %6, %7
  br i1 %8, label %9, label %11

9:                                                ; preds = %1
  %10 = getelementptr inbounds %class.AstNode, ptr %4, i32 0, i32 20
  call void @llvm.memcpy.p0.p0.i64(ptr align 8 %2, ptr align 8 %10, i64 8, i1 false)
  br label %12

11:                                               ; preds = %1
  call void @_ZN6VNUserC2Ei(ptr noundef nonnull align 8 dereferenceable(8) %2, i32 noundef 0)
  br label %12

12:                                               ; preds = %11, %9
  %13 = getelementptr inbounds %class.VNUser, ptr %2, i32 0, i32 0
  %14 = getelementptr inbounds %union.anon.52, ptr %13, i32 0, i32 0
  %15 = load ptr, ptr %14, align 8
  ret ptr %15
}

; Function Attrs: mustprogress nounwind uwtable
define linkonce_odr dso_local void @_ZN11V3ErrorCodeC2ENS_2enE(ptr noundef nonnull align 1 dereferenceable(1) %0, i8 noundef zeroext %1) unnamed_addr #5 comdat align 2 {
  %3 = alloca ptr, align 8
  %4 = alloca i8, align 1
  store ptr %0, ptr %3, align 8
  store i8 %1, ptr %4, align 1
  %5 = load ptr, ptr %3, align 8
  %6 = getelementptr inbounds %class.V3ErrorCode, ptr %5, i32 0, i32 0
  %7 = load i8, ptr %4, align 1
  store i8 %7, ptr %6, align 1
  ret void
}

; Function Attrs: mustprogress uwtable
define internal noundef ptr @_ZNK20AstUserAllocatorBaseI11AstNodeStmtN12_GLOBAL__N_114StmtPropertiesELi3EE8getUserpEPKS0_(ptr noundef nonnull align 8 dereferenceable(80) %0, ptr noundef %1) #4 align 2 {
  %3 = alloca ptr, align 8
  %4 = alloca ptr, align 8
  %5 = alloca %class.VNUser, align 8
  store ptr %0, ptr %3, align 8
  store ptr %1, ptr %4, align 8
  %6 = load ptr, ptr %4, align 8
  %7 = call ptr @_ZNK7AstNode6user3uEv(ptr noundef nonnull align 8 dereferenceable(152) %6)
  %8 = getelementptr inbounds %class.VNUser, ptr %5, i32 0, i32 0
  %9 = getelementptr inbounds %union.anon.52, ptr %8, i32 0, i32 0
  store ptr %7, ptr %9, align 8
  %10 = call noundef ptr @_ZNK6VNUser2toIPN12_GLOBAL__N_114StmtPropertiesEEENSt9enable_ifIXsr3std10is_pointerIT_EE5valueES5_E4typeEv(ptr noundef nonnull align 8 dereferenceable(8) %5)
  ret ptr %10
}

; Function Attrs: mustprogress uwtable
define internal noundef nonnull align 8 dereferenceable(120) ptr @_ZNK20AstUserAllocatorBaseI11AstNodeStmtN12_GLOBAL__N_114StmtPropertiesELi3EEclEPKS0_(ptr noundef nonnull align 8 dereferenceable(80) %0, ptr noundef %1) #4 align 2 {
  %3 = alloca ptr, align 8
  %4 = alloca ptr, align 8
  %5 = alloca ptr, align 8
  %6 = alloca %class.V3ErrorCode, align 1
  store ptr %0, ptr %3, align 8
  store ptr %1, ptr %4, align 8
  %7 = load ptr, ptr %3, align 8
  %8 = load ptr, ptr %4, align 8
  %9 = call noundef ptr @_ZNK20AstUserAllocatorBaseI11AstNodeStmtN12_GLOBAL__N_114StmtPropertiesELi3EE8getUserpEPKS0_(ptr noundef nonnull align 8 dereferenceable(80) %7, ptr noundef %8)
  store ptr %9, ptr %5, align 8
  br label %10

10:                                               ; preds = %2
  %11 = load ptr, ptr %5, align 8
  %12 = icmp ne ptr %11, null
  %13 = xor i1 %12, true
  %14 = xor i1 %13, true
  %15 = xor i1 %14, true
  br i1 %15, label %16, label %23

16:                                               ; preds = %10
  %17 = load ptr, ptr %4, align 8
  call void @_ZN11V3ErrorCodeC2ENS_2enE(ptr noundef nonnull align 1 dereferenceable(1) %6, i8 noundef zeroext 4)
  %18 = getelementptr inbounds %class.V3ErrorCode, ptr %6, i32 0, i32 0
  %19 = load i8, ptr %18, align 1
  %20 = call noundef nonnull align 8 dereferenceable(112) ptr @_ZN7V3Error19v3errorPrepFileLineB5cxx11E11V3ErrorCodePKcib(i8 %19, ptr noundef @.str.443, i32 noundef 97, i1 noundef zeroext true)
  %21 = call noundef nonnull align 8 dereferenceable(112) ptr @_ZN7V3Error10v3errorStrB5cxx11Ev()
  %22 = call noundef nonnull align 8 dereferenceable(8) ptr @_ZStlsISt11char_traitsIcEERSt13basic_ostreamIcT_ES5_PKc(ptr noundef nonnull align 8 dereferenceable(8) %21, ptr noundef @.str.444)
  call void @_ZNK7AstNode15v3errorEndFatalERNSt7__cxx1119basic_ostringstreamIcSt11char_traitsIcESaIcEEE(ptr noundef nonnull align 8 dereferenceable(152) %17, ptr noundef nonnull align 8 dereferenceable(112) %22) #18
  unreachable

23:                                               ; preds = %10
  br label %24

24:                                               ; preds = %23
  %25 = load ptr, ptr %5, align 8
  ret ptr %25
}

; Function Attrs: mustprogress uwtable
define internal noundef zeroext i1 @_ZNK12_GLOBAL__N_125CodeMotionOptimizeVisitor12areSwappableEPK11AstNodeStmtS3_(ptr noundef nonnull align 8 dereferenceable(48) %0, ptr noundef %1, ptr noundef %2) #4 align 2 {
  %4 = alloca i1, align 1
  %5 = alloca ptr, align 8
  %6 = alloca ptr, align 8
  %7 = alloca ptr, align 8
  %8 = alloca ptr, align 8
  %9 = alloca ptr, align 8
  store ptr %0, ptr %5, align 8
  store ptr %1, ptr %6, align 8
  store ptr %2, ptr %7, align 8
  %10 = load ptr, ptr %5, align 8
  %11 = getelementptr inbounds %"class.(anonymous namespace)::CodeMotionOptimizeVisitor", ptr %10, i32 0, i32 2
  %12 = load ptr, ptr %11, align 8
  %13 = load ptr, ptr %6, align 8
  %14 = call noundef nonnull align 8 dereferenceable(120) ptr @_ZNK20AstUserAllocatorBaseI11AstNodeStmtN12_GLOBAL__N_114StmtPropertiesELi3EEclEPKS0_(ptr noundef nonnull align 8 dereferenceable(80) %12, ptr noundef %13)
  store ptr %14, ptr %8, align 8
  %15 = getelementptr inbounds %"class.(anonymous namespace)::CodeMotionOptimizeVisitor", ptr %10, i32 0, i32 2
  %16 = load ptr, ptr %15, align 8
  %17 = load ptr, ptr %7, align 8
  %18 = call noundef nonnull align 8 dereferenceable(120) ptr @_ZNK20AstUserAllocatorBaseI11AstNodeStmtN12_GLOBAL__N_114StmtPropertiesELi3EEclEPKS0_(ptr noundef nonnull align 8 dereferenceable(80) %16, ptr noundef %17)
  store ptr %18, ptr %9, align 8
  %19 = load ptr, ptr %8, align 8
  %20 = getelementptr inbounds %"struct.(anonymous namespace)::StmtProperties", ptr %19, i32 0, i32 3
  %21 = load i8, ptr %20, align 8
  %22 = trunc i8 %21 to i1
  br i1 %22, label %23, label %24

23:                                               ; preds = %3
  store i1 false, ptr %4, align 1
  br label %52

24:                                               ; preds = %3
  %25 = load ptr, ptr %9, align 8
  %26 = getelementptr inbounds %"struct.(anonymous namespace)::StmtProperties", ptr %25, i32 0, i32 3
  %27 = load i8, ptr %26, align 8
  %28 = trunc i8 %27 to i1
  br i1 %28, label %29, label %30

29:                                               ; preds = %24
  store i1 false, ptr %4, align 1
  br label %52

30:                                               ; preds = %24
  %31 = load ptr, ptr %8, align 8
  %32 = getelementptr inbounds %"struct.(anonymous namespace)::StmtProperties", ptr %31, i32 0, i32 1
  %33 = load ptr, ptr %9, align 8
  %34 = getelementptr inbounds %"struct.(anonymous namespace)::StmtProperties", ptr %33, i32 0, i32 2
  %35 = call noundef zeroext i1 @_ZN12_GLOBAL__N_111areDisjointERKSt3setIPK6AstVarSt4lessIS3_ESaIS3_EES9_(ptr noundef nonnull align 8 dereferenceable(48) %32, ptr noundef nonnull align 8 dereferenceable(48) %34)
  br i1 %35, label %37, label %36

36:                                               ; preds = %30
  store i1 false, ptr %4, align 1
  br label %52

37:                                               ; preds = %30
  %38 = load ptr, ptr %9, align 8
  %39 = getelementptr inbounds %"struct.(anonymous namespace)::StmtProperties", ptr %38, i32 0, i32 1
  %40 = load ptr, ptr %8, align 8
  %41 = getelementptr inbounds %"struct.(anonymous namespace)::StmtProperties", ptr %40, i32 0, i32 2
  %42 = call noundef zeroext i1 @_ZN12_GLOBAL__N_111areDisjointERKSt3setIPK6AstVarSt4lessIS3_ESaIS3_EES9_(ptr noundef nonnull align 8 dereferenceable(48) %39, ptr noundef nonnull align 8 dereferenceable(48) %41)
  br i1 %42, label %44, label %43

43:                                               ; preds = %37
  store i1 false, ptr %4, align 1
  br label %52

44:                                               ; preds = %37
  %45 = load ptr, ptr %8, align 8
  %46 = getelementptr inbounds %"struct.(anonymous namespace)::StmtProperties", ptr %45, i32 0, i32 2
  %47 = load ptr, ptr %9, align 8
  %48 = getelementptr inbounds %"struct.(anonymous namespace)::StmtProperties", ptr %47, i32 0, i32 2
  %49 = call noundef zeroext i1 @_ZN12_GLOBAL__N_111areDisjointERKSt3setIPK6AstVarSt4lessIS3_ESaIS3_EES9_(ptr noundef nonnull align 8 dereferenceable(48) %46, ptr noundef nonnull align 8 dereferenceable(48) %48)
  br i1 %49, label %51, label %50

50:                                               ; preds = %44
  store i1 false, ptr %4, align 1
  br label %52

51:                                               ; preds = %44
  store i1 true, ptr %4, align 1
  br label %52

52:                                               ; preds = %51, %50, %43, %36, %29, %23
  %53 = load i1, ptr %4, align 1
  ret i1 %53
}