; Function Attrs: mustprogress uwtable
define internal fastcc noundef zeroext i1 @_ZNK12_GLOBAL__N_125CodeMotionOptimizeVisitor12areSwappableEPK11AstNodeStmtS3_(ptr noundef %0, ptr noundef %1) unnamed_addr #3 align 2 {
  %3 = getelementptr i8, ptr %0, i64 128
  %.val.i = load i64, ptr %3, align 8
  %4 = getelementptr i8, ptr %0, i64 136
  %.val5.i = load i32, ptr %4, align 8
  %5 = load i32, ptr @_ZN12VNUser3InUse12s_userCntGblE, align 4
  %6 = icmp ne i32 %5, %.val5.i
  %.not1.i = icmp eq i64 %.val.i, 0
  %.not.i = select i1 %6, i1 true, i1 %.not1.i
  br i1 %.not.i, label %7, label %_ZNK20AstUserAllocatorBaseI11AstNodeStmtN12_GLOBAL__N_114StmtPropertiesELi3EEclEPKS0_.exit

7:                                                ; preds = %2
  %8 = tail call noundef nonnull align 8 dereferenceable(112) ptr @_ZN7V3Error19v3errorPrepFileLineB5cxx11E11V3ErrorCodePKcib(i8 4, ptr noundef nonnull @.str.443, i32 noundef 97, i1 noundef zeroext true)
  %9 = tail call noundef nonnull align 8 dereferenceable(112) ptr @_ZN7V3Error10v3errorStrB5cxx11Ev()
  %10 = tail call noundef nonnull align 8 dereferenceable(8) ptr @_ZStlsISt11char_traitsIcEERSt13basic_ostreamIcT_ES5_PKc(ptr noundef nonnull align 8 dereferenceable(8) %9, ptr noundef nonnull @.str.444)
  tail call void @_ZNK7AstNode15v3errorEndFatalERNSt7__cxx1119basic_ostringstreamIcSt11char_traitsIcESaIcEEE(ptr noundef nonnull align 8 dereferenceable(152) %0, ptr noundef nonnull align 8 dereferenceable(112) %10) #27
  unreachable

_ZNK20AstUserAllocatorBaseI11AstNodeStmtN12_GLOBAL__N_114StmtPropertiesELi3EEclEPKS0_.exit: ; preds = %2
  %11 = inttoptr i64 %.val.i to ptr
  %12 = getelementptr i8, ptr %1, i64 128
  %.val.i13 = load i64, ptr %12, align 8
  %13 = getelementptr i8, ptr %1, i64 136
  %.val5.i14 = load i32, ptr %13, align 8
  %14 = icmp ne i32 %.val5.i, %.val5.i14
  %.not1.i15 = icmp eq i64 %.val.i13, 0
  %.not.i16 = select i1 %14, i1 true, i1 %.not1.i15
  br i1 %.not.i16, label %15, label %_ZNK20AstUserAllocatorBaseI11AstNodeStmtN12_GLOBAL__N_114StmtPropertiesELi3EEclEPKS0_.exit17

15:                                               ; preds = %_ZNK20AstUserAllocatorBaseI11AstNodeStmtN12_GLOBAL__N_114StmtPropertiesELi3EEclEPKS0_.exit
  %16 = tail call noundef nonnull align 8 dereferenceable(112) ptr @_ZN7V3Error19v3errorPrepFileLineB5cxx11E11V3ErrorCodePKcib(i8 4, ptr noundef nonnull @.str.443, i32 noundef 97, i1 noundef zeroext true)
  %17 = tail call noundef nonnull align 8 dereferenceable(112) ptr @_ZN7V3Error10v3errorStrB5cxx11Ev()
  %18 = tail call noundef nonnull align 8 dereferenceable(8) ptr @_ZStlsISt11char_traitsIcEERSt13basic_ostreamIcT_ES5_PKc(ptr noundef nonnull align 8 dereferenceable(8) %17, ptr noundef nonnull @.str.444)
  tail call void @_ZNK7AstNode15v3errorEndFatalERNSt7__cxx1119basic_ostringstreamIcSt11char_traitsIcESaIcEEE(ptr noundef nonnull align 8 dereferenceable(152) %1, ptr noundef nonnull align 8 dereferenceable(112) %18) #27
  unreachable

_ZNK20AstUserAllocatorBaseI11AstNodeStmtN12_GLOBAL__N_114StmtPropertiesELi3EEclEPKS0_.exit17: ; preds = %_ZNK20AstUserAllocatorBaseI11AstNodeStmtN12_GLOBAL__N_114StmtPropertiesELi3EEclEPKS0_.exit
  %19 = inttoptr i64 %.val.i13 to ptr
  %20 = getelementptr inbounds i8, ptr %11, i64 104
  %21 = load i8, ptr %20, align 8
  %22 = and i8 %21, 1
  %.not = icmp eq i8 %22, 0
  br i1 %.not, label %23, label %37

23:                                               ; preds = %_ZNK20AstUserAllocatorBaseI11AstNodeStmtN12_GLOBAL__N_114StmtPropertiesELi3EEclEPKS0_.exit17
  %24 = getelementptr inbounds i8, ptr %19, i64 104
  %25 = load i8, ptr %24, align 8
  %26 = and i8 %25, 1
  %.not12 = icmp eq i8 %26, 0
  br i1 %.not12, label %27, label %37

27:                                               ; preds = %23
  %28 = getelementptr inbounds i8, ptr %11, i64 8
  %29 = getelementptr inbounds i8, ptr %19, i64 56
  %30 = tail call fastcc noundef zeroext i1 @_ZN12_GLOBAL__N_111areDisjointERKSt3setIPK6AstVarSt4lessIS3_ESaIS3_EES9_(ptr noundef nonnull align 8 dereferenceable(48) %28, ptr noundef nonnull align 8 dereferenceable(48) %29)
  br i1 %30, label %31, label %37

31:                                               ; preds = %27
  %32 = getelementptr inbounds i8, ptr %19, i64 8
  %33 = getelementptr inbounds i8, ptr %11, i64 56
  %34 = tail call fastcc noundef zeroext i1 @_ZN12_GLOBAL__N_111areDisjointERKSt3setIPK6AstVarSt4lessIS3_ESaIS3_EES9_(ptr noundef nonnull align 8 dereferenceable(48) %32, ptr noundef nonnull align 8 dereferenceable(48) %33)
  br i1 %34, label %35, label %37

35:                                               ; preds = %31
  %36 = tail call fastcc noundef zeroext i1 @_ZN12_GLOBAL__N_111areDisjointERKSt3setIPK6AstVarSt4lessIS3_ESaIS3_EES9_(ptr noundef nonnull align 8 dereferenceable(48) %33, ptr noundef nonnull align 8 dereferenceable(48) %29)
  br label %37

37:                                               ; preds = %35, %31, %27, %23, %_ZNK20AstUserAllocatorBaseI11AstNodeStmtN12_GLOBAL__N_114StmtPropertiesELi3EEclEPKS0_.exit17
  %.0 = phi i1 [ false, %_ZNK20AstUserAllocatorBaseI11AstNodeStmtN12_GLOBAL__N_114StmtPropertiesELi3EEclEPKS0_.exit17 ], [ false, %23 ], [ false, %27 ], [ false, %31 ], [ %36, %35 ]
  ret i1 %.0
}